; Function Attrs: nounwind uwtable
define ptr @l_Lean_Elab_InfoTree_collectNodesBottomUpM___at_Lean_Elab_InfoTree_smallestInfo_x3f___spec__2(ptr noundef %0, ptr noundef %1) local_unnamed_addr #0 {
  tail call void @lean_inc_heartbeat() #7
  %3 = tail call noalias ptr @mi_malloc_small(i64 noundef 32) #7
  %4 = icmp eq ptr %3, null
  br i1 %4, label %5, label %lean_alloc_closure.exit

5:                                                ; preds = %2
  tail call void @lean_internal_panic_out_of_memory() #8
  unreachable

lean_alloc_closure.exit:                          ; preds = %2
  %6 = getelementptr inbounds nuw i8, ptr %3, i64 4
  store i32 1, ptr %3, align 4, !tbaa !4
  store i32 -184549344, ptr %6, align 4
  %7 = getelementptr inbounds nuw i8, ptr %3, i64 8
  store ptr @l_Lean_Elab_InfoTree_collectNodesBottomUpM___at_Lean_Elab_InfoTree_smallestInfo_x3f___spec__2___lambda__1, ptr %7, align 8, !tbaa !9
  %8 = getelementptr inbounds nuw i8, ptr %3, i64 16
  store i16 5, ptr %8, align 8, !tbaa !11
  %9 = getelementptr inbounds nuw i8, ptr %3, i64 18
  store i16 1, ptr %9, align 2, !tbaa !11
  %10 = getelementptr inbounds nuw i8, ptr %3, i64 24
  store ptr %0, ptr %10, align 8, !tbaa !9
  %11 = load ptr, ptr @l_Lean_Elab_InfoTree_collectNodesBottomUpM___at_Lean_Elab_InfoTree_collectNodesBottomUp___spec__1___rarg___closed__1, align 8, !tbaa !9
  %12 = tail call ptr @l_Lean_Elab_InfoTree_visitM_go___at_Lean_Elab_InfoTree_smallestInfo_x3f___spec__5(ptr noundef %11, ptr noundef nonnull %3, ptr noundef nonnull inttoptr (i64 1 to ptr), ptr noundef %1)
  %13 = ptrtoint ptr %12 to i64
  %14 = and i64 %13, 1
  %.not.i13 = icmp eq i64 %14, 0
  br i1 %.not.i13, label %18, label %15

15:                                               ; preds = %lean_alloc_closure.exit
  %16 = lshr i64 %13, 1
  %17 = trunc i64 %16 to i32
  br label %lean_obj_tag.exit

18:                                               ; preds = %lean_alloc_closure.exit
  %19 = getelementptr i8, ptr %12, i64 4
  %.val.i = load i32, ptr %19, align 4
  %20 = lshr i32 %.val.i, 24
  br label %lean_obj_tag.exit

lean_obj_tag.exit:                                ; preds = %15, %18
  %.0.i = phi i32 [ %17, %15 ], [ %20, %18 ]
  %21 = icmp eq i32 %.0.i, 0
  br i1 %21, label %lean_dec.exit, label %22

22:                                               ; preds = %lean_obj_tag.exit
  %23 = getelementptr inbounds nuw i8, ptr %12, i64 8
  %24 = load ptr, ptr %23, align 8, !tbaa !9
  %25 = ptrtoint ptr %24 to i64
  %26 = and i64 %25, 1
  %.not = icmp eq i64 %26, 0
  br i1 %.not, label %27, label %lean_inc.exit

27:                                               ; preds = %22
  %.val.i14 = load i32, ptr %24, align 4, !tbaa !4
  %28 = icmp sgt i32 %.val.i14, 0
  br i1 %28, label %29, label %31, !prof !15

29:                                               ; preds = %27
  %30 = add nuw i32 %.val.i14, 1
  store i32 %30, ptr %24, align 4, !tbaa !4
  br label %lean_inc.exit

31:                                               ; preds = %27
  %.not.i15 = icmp eq i32 %.val.i14, 0
  br i1 %.not.i15, label %lean_inc.exit, label %32

32:                                               ; preds = %31
  tail call void @lean_inc_ref_cold(ptr noundef nonnull %24) #7
  br label %lean_inc.exit

lean_inc.exit:                                    ; preds = %32, %31, %29, %22
  br i1 %.not.i13, label %33, label %lean_dec.exit

33:                                               ; preds = %lean_inc.exit
  %34 = load i32, ptr %12, align 4, !tbaa !4
  %35 = icmp sgt i32 %34, 1
  br i1 %35, label %36, label %38, !prof !15

36:                                               ; preds = %33
  %37 = add nsw i32 %34, -1
  store i32 %37, ptr %12, align 4, !tbaa !4
  br label %lean_dec.exit

38:                                               ; preds = %33
  %.not.i = icmp eq i32 %34, 0
  br i1 %.not.i, label %lean_dec.exit, label %39

39:                                               ; preds = %38
  tail call void @lean_dec_ref_cold(ptr noundef nonnull %12) #7
  br label %lean_dec.exit

lean_dec.exit:                                    ; preds = %lean_inc.exit, %36, %38, %39, %lean_obj_tag.exit
  %.0 = phi ptr [ inttoptr (i64 1 to ptr), %lean_obj_tag.exit ], [ %24, %39 ], [ %24, %38 ], [ %24, %36 ], [ %24, %lean_inc.exit ]
  ret ptr %.0
}